target datalayout = "e-m:e-p270:32:32-p271:32:32-p272:64:64-i64:64-i128:128-f80:128-n8:16:32:64-S128"
target triple = "x86_64-pc-linux-gnu"

%struct.slurmctld_lock_t = type { i32, i32, i32, i32, i32 }
%struct.assoc_mgr_lock_t = type { i32, i32, i32, i32, i32, i32, i32 }

@job_list = external global ptr, align 8
@__const._update_cluster_tres.job_write_lock = private unnamed_addr constant %struct.slurmctld_lock_t { i32 0, i32 2, i32 0, i32 0, i32 0 }, align 4
@__const._update_cluster_tres.locks = private unnamed_addr constant %struct.assoc_mgr_lock_t { i32 0, i32 0, i32 0, i32 0, i32 1, i32 0, i32 0 }, align 4

; Function Attrs: nounwind uwtable
define internal void @_update_cluster_tres() #0 {
  %1 = alloca %struct.slurmctld_lock_t, align 8
  %2 = alloca %struct.assoc_mgr_lock_t, align 4
  %3 = alloca i32, align 4
  call void @llvm.lifetime.start.p0(i64 20, ptr %1) #11
  call void @llvm.memcpy.p0.p0.i64(ptr align 4 %1, ptr align 4 @__const._update_cluster_tres.job_write_lock, i64 20, i1 false)
  call void @llvm.lifetime.start.p0(i64 28, ptr %2) #11
  call void @llvm.memcpy.p0.p0.i64(ptr align 4 %2, ptr align 4 @__const._update_cluster_tres.locks, i64 28, i1 false)
  %4 = load ptr, ptr @job_list, align 8
  %5 = icmp ne ptr %4, null
  br i1 %5, label %7, label %6

6:                                                ; preds = %0
  store i32 1, ptr %3, align 4
  br label %10

7:                                                ; preds = %0
  call void @lock_slurmctld(ptr noundef byval(%struct.slurmctld_lock_t) align 8 %1)
  call void @assoc_mgr_lock(ptr noundef %2)
  %8 = load ptr, ptr @job_list, align 8
  %9 = call i32 @list_for_each(ptr noundef %8, ptr noundef @_update_job_tres, ptr noundef null)
  call void @assoc_mgr_unlock(ptr noundef %2)
  call void @unlock_slurmctld(ptr noundef byval(%struct.slurmctld_lock_t) align 8 %1)
  store i32 0, ptr %3, align 4
  br label %10

10:                                               ; preds = %7, %6
  call void @llvm.lifetime.end.p0(i64 28, ptr %2) #11
  call void @llvm.lifetime.end.p0(i64 20, ptr %1) #11
  %11 = load i32, ptr %3, align 4
  switch i32 %11, label %13 [
    i32 0, label %12
    i32 1, label %12
  ]

12:                                               ; preds = %10, %10
  ret void

13:                                               ; preds = %10
  unreachable
}