; Function Attrs: nounwind uwtable
define internal void @_update_cluster_tres() #6 {
  %1 = alloca %struct.assoc_mgr_lock_t, align 4
  call void @llvm.lifetime.start.p0(i64 28, ptr nonnull %1) #19
  call void @llvm.memcpy.p0.p0.i64(ptr noundef nonnull align 4 dereferenceable(28) %1, ptr noundef nonnull align 4 dereferenceable(28) @__const._init_tres.locks, i64 28, i1 false)
  %2 = load ptr, ptr @job_list, align 8
  %.not = icmp eq ptr %2, null
  br i1 %.not, label %6, label %3

3:                                                ; preds = %0
  tail call void @lock_slurmctld(ptr noundef nonnull byval(%struct.slurmctld_lock_t) align 8 @__const._update_cluster_tres.job_write_lock) #19
  call void @assoc_mgr_lock(ptr noundef nonnull %1) #19
  %4 = load ptr, ptr @job_list, align 8
  %5 = call i32 @list_for_each(ptr noundef %4, ptr noundef nonnull @_update_job_tres, ptr noundef null) #19
  call void @assoc_mgr_unlock(ptr noundef nonnull %1) #19
  call void @unlock_slurmctld(ptr noundef nonnull byval(%struct.slurmctld_lock_t) align 8 @__const._update_cluster_tres.job_write_lock) #19
  br label %6

6:                                                ; preds = %0, %3
  call void @llvm.lifetime.end.p0(i64 28, ptr nonnull %1) #19
  ret void
}